; Function Attrs: mustprogress nofree norecurse nosync nounwind willreturn memory(read, inaccessiblemem: none) uwtable
define internal noundef i32 @_ZZ35test_submodule_multiple_inheritanceRN8pybind117module_EENK3MVE8get_e_d0Ev(ptr noundef nonnull readonly align 8 captures(none) dereferenceable(12) %0) #12 align 2 {
  %2 = load ptr, ptr %0, align 8, !tbaa !1508
  %3 = getelementptr i8, ptr %2, i64 -24
  %4 = load i64, ptr %3, align 8
  %5 = getelementptr inbounds i8, ptr %0, i64 %4
  %6 = getelementptr inbounds nuw i8, ptr %5, i64 8
  %7 = load i32, ptr %6, align 8, !tbaa !1522
  ret i32 %7
}